; Function Attrs: mustprogress uwtable
define void @_ZN18OpenImageIO_v2_6_010ImageInput28ioproxy_retrieve_from_configERKNS_9ImageSpecE(ptr noundef nonnull align 8 dereferenceable(184) %this, ptr noundef nonnull align 8 dereferenceable(160) %config) local_unnamed_addr #5 align 2 personality ptr @__gxx_personality_v0 {
entry:
  %agg.tmp = alloca %"class.OpenImageIO_v2_6_0::basic_string_view", align 8
  %agg.tmp2 = alloca %"struct.OpenImageIO_v2_6_0::TypeDesc", align 4
  store ptr @.str.9, ptr %agg.tmp, align 8
  %m_len.i = getelementptr inbounds i8, ptr %agg.tmp, i64 8
  store i64 12, ptr %m_len.i, align 8
  store <4 x i8> <i8 14, i8 1, i8 0, i8 0>, ptr %agg.tmp2, align 4
  %arraylen4.i = getelementptr inbounds i8, ptr %agg.tmp2, i64 4
  store i32 0, ptr %arraylen4.i, align 4
  %call = call noundef ptr @_ZNK18OpenImageIO_v2_6_09ImageSpec14find_attributeENS_17basic_string_viewIcSt11char_traitsIcEEENS_8TypeDescEb(ptr noundef nonnull align 8 dereferenceable(160) %config, ptr noundef nonnull %agg.tmp, ptr noundef nonnull %agg.tmp2, i1 noundef zeroext false)
  %tobool.not = icmp eq ptr %call, null
  br i1 %tobool.not, label %if.end, label %if.then

if.then:                                          ; preds = %entry
  %m_nonlocal.i.i = getelementptr inbounds i8, ptr %call, i64 38
  %0 = load i8, ptr %m_nonlocal.i.i, align 2
  %1 = and i8 %0, 1
  %tobool.not.i.i = icmp eq i8 %1, 0
  %m_data.i.i = getelementptr inbounds i8, ptr %call, i64 16
  %2 = load ptr, ptr %m_data.i.i, align 8
  %cond.i.i = select i1 %tobool.not.i.i, ptr %m_data.i.i, ptr %2
  %3 = load ptr, ptr %cond.i.i, align 8
  %vtable = load ptr, ptr %this, align 8
  %vfn = getelementptr inbounds i8, ptr %vtable, i64 264
  %4 = load ptr, ptr %vfn, align 8
  %call4 = call noundef zeroext i1 %4(ptr noundef nonnull align 8 dereferenceable(184) %this, ptr noundef %3)
  br label %if.end

if.end:                                           ; preds = %if.then, %entry
  ret void
}